; Function Attrs: cold nounwind optsize uwtable
define internal fastcc void @vp78_decode_init(ptr noundef %0) unnamed_addr #0 {
  %2 = getelementptr inbounds nuw i8, ptr %0, i64 32
  %3 = load ptr, ptr %2, align 8, !tbaa !4
  %4 = getelementptr inbounds nuw i8, ptr %3, i64 8
  store ptr %0, ptr %4, align 8, !tbaa !36
  %5 = getelementptr inbounds nuw i8, ptr %3, i64 16
  store i32 -1, ptr %5, align 8, !tbaa !94
  %6 = getelementptr inbounds nuw i8, ptr %0, i64 136
  store i32 0, ptr %6, align 8, !tbaa !96
  %7 = getelementptr inbounds nuw i8, ptr %3, i64 5056
  tail call void @ff_videodsp_init(ptr noundef nonnull %7, i32 noundef 8) #12
  %8 = getelementptr inbounds nuw i8, ptr %3, i64 5072
  tail call void @ff_vp78dsp_init(ptr noundef nonnull %8) #12
  %9 = getelementptr inbounds nuw i8, ptr %3, i64 2536
  tail call void @llvm.memcpy.p0.p0.i64(ptr noundef nonnull align 4 dereferenceable(16) %9, ptr noundef nonnull align 16 dereferenceable(16) @ff_zigzag_scan, i64 16, i1 false)
  ret void
}